; Function Attrs: mustprogress nofree nounwind uwtable
define noundef double @_Z29calcVibrationalInternalEnergyN3gmx8ArrayRefIKfEEfbf(ptr %0, ptr %1, float noundef %2, i1 noundef zeroext %3, float noundef %4) local_unnamed_addr #4 {
  %6 = select i1 %3, i64 5, i64 6
  %7 = ptrtoint ptr %1 to i64
  %8 = ptrtoint ptr %0 to i64
  %9 = sub i64 %7, %8
  %10 = ashr exact i64 %9, 2
  %11 = icmp slt i64 %6, %10
  br i1 %11, label %.lr.ph, label %.._crit_edge_crit_edge

.._crit_edge_crit_edge:                           ; preds = %5
  %.pre = fpext float %2 to double
  br label %._crit_edge

.lr.ph:                                           ; preds = %5
  %12 = fpext float %4 to double
  %13 = fpext float %2 to double
  %14 = fmul double %13, 0x3B30B0E6D55E647C
  br label %17

._crit_edge:                                      ; preds = %41, %.._crit_edge_crit_edge
  %.pre-phi = phi double [ %.pre, %.._crit_edge_crit_edge ], [ %13, %41 ]
  %.0.lcssa = phi double [ 0.000000e+00, %.._crit_edge_crit_edge ], [ %.2, %41 ]
  %15 = fmul double %.pre-phi, 0x3F81072C483AF26D
  %16 = fmul double %15, %.0.lcssa
  ret double %16

17:                                               ; preds = %.lr.ph, %41
  %.028 = phi double [ 0.000000e+00, %.lr.ph ], [ %.2, %41 ]
  %.02126 = phi i64 [ %6, %.lr.ph ], [ %42, %41 ]
  %18 = getelementptr inbounds nuw float, ptr %0, i64 %.02126
  %19 = load float, ptr %18, align 4, !tbaa !8
  %20 = fcmp ogt float %19, 0.000000e+00
  br i1 %20, label %21, label %41

21:                                               ; preds = %17
  %22 = fpext float %19 to double
  %23 = fmul double %22, 0x44EA78437A00E75D
  %24 = tail call noundef double @sqrt(double noundef %23) #8, !tbaa !4
  %25 = fmul double %24, %12
  %26 = fmul double %25, 0x38E185A7057C690D
  %27 = fdiv double %26, %14
  %28 = fcmp olt double %27, 1.000000e+02
  br i1 %28, label %29, label %41

29:                                               ; preds = %21
  %30 = tail call double @expm1(double noundef %27) #8, !tbaa !4
  %31 = fdiv double 1.000000e+00, %30
  %32 = fadd double %31, 5.000000e-01
  %33 = fmul double %27, %32
  %34 = load ptr, ptr @debug, align 8, !tbaa !10
  %.not = icmp eq ptr %34, null
  br i1 %.not, label %39, label %35

35:                                               ; preds = %29
  %36 = trunc i64 %.02126 to i32
  %37 = add i32 %36, 1
  %38 = tail call i32 (ptr, ptr, ...) @fprintf(ptr noundef nonnull %34, ptr noundef nonnull @.str, i32 noundef %37, double noundef %22, double noundef %25, double noundef %27, double noundef %33) #8
  br label %39

39:                                               ; preds = %35, %29
  %40 = fadd double %.028, %33
  br label %41

41:                                               ; preds = %21, %39, %17
  %.2 = phi double [ %.028, %17 ], [ %40, %39 ], [ %.028, %21 ]
  %42 = add nuw nsw i64 %.02126, 1
  %exitcond.not = icmp eq i64 %42, %10
  br i1 %exitcond.not, label %._crit_edge, label %17, !llvm.loop !13
}